; Function Attrs: nounwind uwtable
define i32 @Cba_NtkMuxTree_rec(ptr noundef %0, ptr noundef %1, i32 noundef %2, ptr noundef %3, i32 noundef %4) local_unnamed_addr #0 {
  %6 = icmp eq i32 %2, 0
  br i1 %6, label %common.ret, label %11

common.ret:                                       ; preds = %5
  %7 = getelementptr i8, ptr %3, i64 8
  %.val = load ptr, ptr %7, align 8
  %8 = sext i32 %4 to i64
  %9 = getelementptr inbounds i32, ptr %.val, i64 %8
  %10 = load i32, ptr %9, align 4
  br label %common.ret20

common.ret20:                                     ; preds = %11, %common.ret
  %common.ret20.op = phi i32 [ %10, %common.ret ], [ %20, %11 ]
  ret i32 %common.ret20.op

11:                                               ; preds = %5
  %12 = add nsw i32 %2, -1
  %13 = tail call i32 @Cba_NtkMuxTree_rec(ptr noundef %0, ptr noundef %1, i32 noundef %12, ptr noundef %3, i32 noundef %4)
  %14 = shl nuw i32 1, %12
  %15 = add nsw i32 %4, %14
  %16 = tail call i32 @Cba_NtkMuxTree_rec(ptr noundef %0, ptr noundef %1, i32 noundef %12, ptr noundef %3, i32 noundef %15)
  %17 = sext i32 %12 to i64
  %18 = getelementptr inbounds i32, ptr %1, i64 %17
  %19 = load i32, ptr %18, align 4
  %20 = tail call i32 @Gia_ManHashMux(ptr noundef %0, i32 noundef %19, i32 noundef %16, i32 noundef %13) #20
  br label %common.ret20
}